(dp0
Vmaterials/sabstones
p1
I1074
sVsecondly
p2
I400
sVplced
p3
I1704
sVdesirable
p4
I1076
sVfour
p5
I53
sVwoods
p6
I803
sVconsider
p7
I1077
sVlooking
p8
I341
sVcalculate
p9
I467
sV*they
p10
I677
sV30min
p11
I1078
sVpresents
p12
I1079
sVwhatsoever
p13
I1080
sVunder
p14
I401
sVmaterials/containers
p15
I1081
sVcontainer-
p16
I1275
sVrisk
p17
I1084
sVconstent
p18
I804
sVrise
p19
I678
sVreplication
p20
I498
sVevery
p21
I338
sVaffect
p22
I239
sVschool
p23
I805
sVsolution
p24
I378
sVtempeture
p25
I1085
sVreliable
p26
I520
sVupp
p27
I1088
sVforce
p28
I1089
sVthrought
p29
I1090
sVconsistent
p30
I806
sVestimates
p31
I1091
sV10g
p32
I688
sVsecond
p33
I212
sV2.the
p34
I1092
sVn
p35
I808
sVexpariement
p36
I1093
sVsement
p37
I1094
sVeven
p38
I322
sVstatmen
p39
I1095
sVerrors
p40
I1096
sVvitel
p41
I1097
sV+
p42
I379
sVtipe
p43
I1098
sVfingers
p44
I809
sVpetri
p45
I1099
sVabove
p46
I1100
sVconduct
p47
I442
sVnew
p48
I365
sVrubes
p49
I1101
sVever
p50
I1102
sVtold
p51
I237
sVdidn'nt
p52
I1103
sVwhose
p53
I1617
sVculd
p54
I1105
sVnever
p55
I286
sVstared
p56
I1106
sVhere
p57
I697
sVequall
p58
I1108
sVprotection
p59
I1109
sVmes
p60
I1110
sVrepresented
p61
I1111
sV100
p62
I1112
sVinterpret
p63
I1113
sVdry
p64
I121
sVsubstance
p65
I331
sVclarify
p66
I666
sVitems
p67
I380
sVroom/vineger
p68
I1117
sVchanged
p69
I443
sV'samples
p70
I1118
sVdrt
p71
I1119
sVallready
p72
I1120
sVaka
p73
I1121
sVchanges
p74
I402
sVtsamples
p75
I1122
sVake
p76
I1123
sVlimestar
p77
I1124
sVdiameter
p78
I1125
sVdivide
p79
I810
sVcontainor
p80
I1126
sVexsape
p81
I1128
sVcontainer.they
p82
I1129
sVexplained
p83
I421
sVreplace
p84
I597
sV-leave
p85
I1130
sVspecifics
p86
I679
sVcostly
p87
I1901
sVcounts
p88
I1132
sVtotal
p89
I536
sVunit
p90
I349
sVdescrib
p91
I1135
sVwould
p92
I8
sVwoule
p93
I811
sVnegative
p94
I812
sVchoosen
p95
I1136
sVmation
p96
I813
sVcall
p97
I1137
sVtherefore
p98
I444
sVtype
p99
I82
sVtell
p100
I84
sVlable
p101
I445
sVsuccessful
p102
I598
sVconclusions
p103
I1138
sVammount
p104
I537
sVit
p105
I35
sVglass
p106
I599
sVwarm
p107
I468
sVhold
p108
I502
sVmust
p109
I192
sVme
p110
I227
sVword
p111
I475
sVroom
p112
I228
sVml
p113
I469
sVwork
p114
I538
sVincubator
p115
I680
sVtemperatures
p116
I681
sVmy
p117
I287
sVexample
p118
I199
sVindicated
p119
I814
sVgive
p120
I213
sVrounenst
p121
I1142
sVmessures
p122
I1143
sVindicates
p123
I1144
sVkined
p124
I1145
sVwant
p125
I179
sVkeep
p126
I238
sVpreferably
p127
I1146
sVsought
p128
I2060
sVhoe
p129
I1147
sVend
p130
I210
sVturn
p131
I1148
sVcontainar
p132
I890
sVverify
p133
I1149
sV-what
p134
I1150
sVdrying
p135
I470
sVhow
p136
I12
sVhot
p137
I422
sVanswer
p138
I381
sVdescription
p139
I815
sVmess
p140
I816
sVafter
p141
I68
sVlab
p142
I214
sVwrong
p143
I499
sVlaw
p144
I1151
sVtypes
p145
I211
sVsample1,2
p146
I1152
sVthird
p147
I259
sVreapetedly
p148
I1153
sVrecieved
p149
I1154
sV-pour
p150
I1158
sVdecreasing
p151
I1159
sVvarible
p152
I1160
sVmauterials
p153
I1506
sVorder
p154
I38
sVrecieves
p155
I1161
sVover
p156
I288
sVexpierement
p157
I1722
sVvary
p158
I500
sVbecaus
p159
I1163
sV9.4g
p160
I817
sVreplicating
p161
I446
sVbefore
p162
I175
sV10.4
p163
I721
sVfit
p164
I1165
sVrepete
p165
I818
sVdiffrent
p166
I501
sV,
p167
I6
sVwriting
p168
I683
sVbetter
p169
I240
sVdifferently
p170
I601
sVweeks
p171
I1166
sVeasier
p172
I403
sVthen
p173
I127
sVthem
p174
I91
sVaffected
p175
I447
sVbeakers
p176
I1167
sVsayat
p177
I1168
sVprocedure.another
p178
I1960
sVsafe
p179
I1169
sVband
p180
I1170
sVniformation
p181
I1723
sVeffects
p182
I602
sVthey
p183
I23
sVthew
p184
I1171
sVther
p185
I1172
sVmeas
p186
I1173
sVtriles
p187
I1191
sVrocks
p188
I247
sVreasonable
p189
I1174
sVeach
p190
I21
sVgougles
p191
I820
sVwent
p192
I539
sVmean
p193
I684
sVuse.what
p194
I1175
sVallat
p195
I1176
sVextract
p196
I821
sVrevisions
p197
I1177
sV-5
p198
I1178
sVcrucial
p199
I727
sVcontent
p200
I1179
sVencourage
p201
I1180
sVshade/sun
p202
I1181
sVreader
p203
I382
sVgot
p204
I323
sVro
p205
I1182
sV.they
p206
I1183
sVcups.for
p207
I1184
sVlittle
p208
I310
sVwanted
p209
I541
sVup-more
p210
I1185
sVdays
p211
I685
sVfilter
p212
I1186
sVism
p213
I1187
sVexplicate
p214
I822
sVliquids
p215
I542
sVonto
p216
I543
sVcleaning
p217
I823
sValready
p218
I738
sVfeatures
p219
I1188
sVntuing
p220
I1189
sVadditials
p221
I1190
sVgoggle
p222
I1361
sVwash
p223
I544
sV-0.1g
p224
I1193
sVanother
p225
I126
sVtel
p226
I953
sVindepent
p227
I825
sVelectronic
p228
I603
sVtor
p229
I1195
sVtop
p230
I545
sVneeded
p231
I61
sVrates
p232
I1196
sVobservations
p233
I546
sVwildly
p234
I1197
sVpercentage
p235
I1198
sVthingsin
p236
I1199
sVindepennet
p237
I1200
sVcentered
p238
I1201
sVtool
p239
I604
sVtook
p240
I687
sVdirect
p241
I807
sVrepeatable
p242
I1202
sVsomewhat
p243
I1203
sVprodure
p244
I1204
sVshowed
p245
I1205
sVlikely
p246
I689
sVpreformed
p247
I826
sVproject
p248
I448
sVuseing
p249
I987
sVevaporated
p250
I1206
sVminus
p251
I1207
sVmini
p252
I1208
sVlbs
p253
I1209
sVcaled
p254
I1210
sVmine
p255
I1211
sVtalking
p256
I690
sVseen
p257
I691
sVmins
p258
I606
sVtells
p259
I449
sVrelatively
p260
I827
sVthoroughly
p261
I828
sVsoaked
p262
I692
sV-
p263
I423
sVthorough
p264
I1212
sVrecommended
p265
I1213
sVingridients
p266
I1311
sVconatainer
p267
I1215
sVamnt
p268
I829
sVcompleted
p269
I693
sVknowlege
p270
I1216
sVthough
p271
I547
sVgoingin
p272
I1217
sVobject
p273
I330
sVregular
p274
I830
sVoil
p275
I1797
sVtyp
p276
I1218
sVseperat
p277
I1219
sVvaraety
p278
I1220
sVneccasary
p279
I1221
sVdon
p280
I831
sVobservation
p281
I1222
sVenvironmental
p282
I2112
sVcalculated
p283
I832
sVmetal
p284
I548
sVproceedures
p285
I1224
sVnotion
p286
I1225
sVcame
p287
I694
sVsaying
p288
I472
sVconclution
p289
I1226
sVlabels
p290
I549
sVsamples.3
p291
I1228
sVending
p292
I137
sV7.2
p293
I695
sVviniguer
p294
I1229
sV7.1
p295
I1230
sVsolutions
p296
I607
sVendingmass
p297
I1231
sVearth
p298
I1232
sVmessure
p299
I833
sVexplain
p300
I248
sVhrs
p301
I608
sVappropate
p302
I1233
sVrich
p303
I1234
sVwearing
p304
I1235
sVdo
p305
I50
sVwide
p306
I1523
sVetc.
p307
I1980
sVm/ls
p308
I1236
sVstop
p309
I609
sVyouill
p310
I1238
sVsupplies
p311
I1239
sVreport
p312
I835
sVbar
p313
I836
sVcovering
p314
I837
sVlisted.last
p315
I1240
sVtwice
p316
I1241
sVbad
p317
I838
sVshuld
p318
I839
sVtempature
p319
I1242
sVsteam
p320
I1243
sVidenticle
p321
I1244
sVfair
p322
I696
sVedited
p323
I1535
sVclarified
p324
I1245
sVtesting
p325
I232
sVrecieve
p326
I841
sVwas/was
p327
I1246
sV9,4-marble
p328
I1247
sVresult
p329
I404
sVmultible
p330
I1248
sVbest
p331
I424
sVclarifies
p332
I1249
sVsaid
p333
I311
sVunserturetly
p334
I1250
sVaway
p335
I610
sVscore
p336
I1251
sVcontainners
p337
I1252
sVhopefully
p338
I1253
sVvineager
p339
I1254
sVwage
p340
I1255
sVwe
p341
I57
sVexpirament
p342
I1256
sVwo
p343
I611
sVconfusion
p344
I842
sVweak
p345
I1257
sVhowever
p346
I612
sVwi
p347
I1258
sVwh
p348
I1259
sVwt
p349
I1260
sVdrew
p350
I1107
sVimprove
p351
I613
sVclimate
p352
I843
sVresistant
p353
I844
sVcup
p354
I117
sVneccassary
p355
I1261
sVconiditions
p356
I1262
sVdistinction
p357
I1263
sVcaute
p358
I1915
sVasked
p359
I1265
sVmase
p360
I2264
sVtone
p361
I1266
sVlayers
p362
I1386
sV2nd
p363
I845
sVdiff
p364
I846
sVhypothesis.the
p365
I1267
sVifor
p366
I1268
sVbathroom
p367
I1269
sVthree
p368
I159
sVbeen
p369
I253
sV.
p370
I5
sVmuch
p371
I22
sVreplicate
p372
I26
sVsucessfully
p373
I1270
sVbasic
p374
I1271
sVcontainers
p375
I31
sVthrew
p376
I1272
sVobtained
p377
I698
sVconcerning
p378
I847
sVyouwould
p379
I1273
sVexperiment.^p
p380
I1274
sVconiainer
p381
I1114
sVapplied
p382
I1082
sVsuppost
p383
I1276
sVsuitably
p384
I1277
sVair
p385
I848
sVaim
p386
I1278
sVnear
p387
I1279
sVsuppose
p388
I965
sVaid
p389
I1280
sVbalance
p390
I324
sVprocedure
p391
I39
sVmistake
p392
I699
sVcontainers.^p
p393
I2220
sVtempriture
p394
I1134
sVip
p395
I1282
sVis
p396
I24
sVsamples.the
p397
I1139
sViv
p398
I1284
sVii
p399
I1285
sVvinrgar
p400
I1286
sVtissue
p401
I1287
sVim
p402
I850
sVin
p403
I10
sVie
p404
I851
sVif
p405
I56
sVcontaining
p406
I1288
sVbottles
p407
I1289
sVperform
p408
I450
sVsuggest
p409
I852
sVmake
p410
I97
sVmilliliters
p411
I1290
sVcoold
p412
I1291
sVstilking
p413
I1292
sVseveral
p414
I366
sVcouple
p415
I614
sVindependent
p416
I276
sValittle
p417
I1293
sVrain
p418
I185
sVhand
p419
I1294
sVkmrs
p420
I1295
sVcycle
p421
I1296
sVmentioning
p422
I1297
sVkept
p423
I296
sVmatters
p424
I761
sVths
p425
I1299
sVplastic.the
p426
I1300
sVtempereture
p427
I1301
sVrome
p428
I1302
sVgreatest
p429
I1303
sVthe
p430
I3
sVtha
p431
I615
sVleft
p432
I254
sVfipst
p433
I1304
sVplase
p434
I1305
sVjust
p435
I190
sVsentence
p436
I1306
sVdistribute
p437
I853
sVcounclution
p438
I1307
sVgoggles
p439
I550
sVidentify
p440
I383
sVhuman
p441
I1308
sVfacts
p442
I1309
sVyet
p443
I854
sVadding
p444
I425
sVenters
p445
I1310
sVinstance
p446
I855
sVhad
p447
I229
sVexperment
p448
I856
sVgreatly
p449
I2065
sVeasy
p450
I616
sVhar
p451
I1312
sVhas
p452
I188
sVhat
p453
I1313
sVhav
p454
I1314
sVgave
p455
I857
sVreplicateable
p456
I1315
sVpossible
p457
I339
sVcaps
p458
I1316
sVpossibly
p459
I858
sVbackground
p460
I1317
sVwanting
p461
I1534
sVretreat
p462
I1319
sVjer
p463
I1824
sVmeasur
p464
I1320
sVspecif
p465
I1321
sVcooler
p466
I859
sVperforming
p467
I617
sV50
p468
I1322
sVspecific
p469
I155
sVremind
p470
I860
sV5.
p471
I700
sVsteps
p472
I218
sVnight
p473
I618
sV7,1-plastic
p474
I1323
sVright
p475
I289
sVold
p476
I1324
sVpeople
p477
I367
sVsuccessfully
p478
I861
sVcasinial
p479
I1536
sVprecautions
p480
I1326
sVexperiment.you
p481
I1327
sVconfusing
p482
I1328
sVshapes
p483
I1001
sVfor
p484
I40
sVexperement
p485
I862
sV/
p486
I863
sVeverything
p487
I332
sVdrys
p488
I1133
sVfom
p489
I1330
sVcompletly
p490
I701
sVvariadle
p491
I1331
sVplastic.they
p492
I1332
sVinciable
p493
I1333
sV24-hour
p494
I1334
sVcork
p495
I1335
sVyourdetermining
p496
I1336
sVgraduated
p497
I1337
sVpost
p498
I1338
sVo
p499
I702
sVaded
p500
I1339
sVensure
p501
I619
sVconculsion
p502
I1340
sVwhats
p503
I864
sVfroze
p504
I1341
sVsom
p505
I1342
sVdown
p506
I290
sVfilvel
p507
I1343
sVreducing
p508
I1344
sV11.2g
p509
I703
sVsamee
p510
I1345
sVinitial
p511
I704
sVcorossion
p512
I1347
sVsunlight
p513
I473
sVinably
p514
I1348
sVadditionals
p515
I1349
sVway
p516
I241
sVresulted
p517
I1350
sVwat
p518
I865
sVwas
p519
I47
sVcouid
p520
I1351
sVlowest
p521
I1352
sVmedium
p522
I1353
sVform
p523
I551
sVsubtena
p524
I1354
sVdifferences
p525
I552
sVfore
p526
I1355
sVcrushal
p527
I1356
sVheat
p528
I866
sVunderstandable
p529
I1357
sVinfor
p530
I1358
sVtrue
p531
I867
sVsamples.this
p532
I1359
sVportions
p533
I1360
sVinside
p534
I427
sVimarble
p535
I1362
sVexperimentor
p536
I1363
sVleashneed
p537
I1281
sVfewseconds
p538
I1364
sVcovered.the
p539
I1365
sS'<unk>'
p540
I1
sVvinergar
p541
I1366
sVcovers
p542
I1367
sV''
p543
I58
sVfloating
p544
I1368
sVdealer
p545
I1155
sVphysical
p546
I1369
sVno
p547
I182
sVwhereas
p548
I1370
sVconstain
p549
I1371
sVwhen
p550
I130
sVending11.2
p551
I1372
sVrole
p552
I868
sVholding
p553
I1373
sVtest
p554
I255
sVinthere
p555
I1374
sVprocudere
p556
I1375
sV's
p557
I111
sVconvincing
p558
I1376
sVbelive
p559
I869
sV'd
p560
I297
sVsteps.also
p561
I1751
sV'a
p562
I1377
sVvariable
p563
I205
sV'm
p564
I428
sVfaster
p565
I728
sVbullet
p566
I1378
sVtogether
p567
I870
sVuncovered
p568
I871
sVaffects
p569
I764
sV0.4.
p570
I1381
sVmeasurements
p571
I293
sVswitched
p572
I1383
sVvarying
p573
I1384
sVprocudure
p574
I872
sVpapertowel
p575
I1385
sVfoour
p576
I1127
sVcertainly
p577
I1387
sVmles
p578
I1140
sVsomthing
p579
I873
sVzone
p580
I1388
sVgraph
p581
I405
sVenvironment
p582
I368
sVfinally
p583
I154
sVcontairs
p584
I1390
sVdeap
p585
I1391
sVnone
p586
I1753
sVrending
p587
I1393
sVma
p588
I1141
sVindivided
p589
I1395
sVexact
p590
I215
sVcool
p591
I874
sVwater.these
p592
I1396
sVlevel
p593
I707
sVdid
p594
I83
sVskewed
p595
I875
sVleave
p596
I298
sVitem
p597
I876
sVteal
p598
I1397
sVbutthey
p599
I1398
sVjustsaid
p600
I1549
sVsays
p601
I230
sVfindings
p602
I877
sVtrails
p603
I1400
sVpore
p604
I1401
sVprediction
p605
I878
sVsign
p606
I1402
sVrefridarter
p607
I1403
sVdried
p608
I553
sVmiterials
p609
I1404
sVindicated.lastly
p610
I2139
sVsubstitute
p611
I708
sVeaach
p612
I1406
sVadde
p613
I1407
sVaddd
p614
I1408
sVare.it
p615
I1409
sVgoes
p616
I406
sVreply
p617
I1410
sVprocautions
p618
I1411
sVfilled
p619
I879
sVhart
p620
I1799
sVunderstanding
p621
I1412
sVwater
p622
I62
sVevident
p623
I1413
sVslow
p624
I1552
sVwitch
p625
I880
sVgroups
p626
I162
sValone
p627
I1414
sValong
p628
I620
sVchange
p629
I180
sVwait
p630
I503
sVbox
p631
I881
sV'four
p632
I1415
sVtrial
p633
I384
sVchemical
p634
I882
sV2,2-plastic
p635
I1416
sVuseful
p636
I476
sVcorr
p637
I1237
sVextra
p638
I477
sVlosing
p639
I1283
sVsofty
p640
I1419
sVeverybody
p641
I1420
sV-round
p642
I1421
sVinstanchings
p643
I1422
sVworking
p644
I451
sVprove
p645
I765
sVande
p646
I1424
sVpredictions
p647
I1425
sVhowa
p648
I1918
sVwood
p649
I95
sVwondering
p650
I1426
sVmaterialinto
p651
I1427
sVexperiament
p652
I1429
sV``
p653
I118
sVmarbles
p654
I504
sVvalidity
p655
I429
sVmarbled
p656
I1430
sVtinet
p657
I1431
sV9.1g
p658
I1432
sVcases
p659
I1433
sVand/
p660
I1434
sVwouldnt
p661
I1435
sVavoiding
p662
I1436
sVcap
p663
I1437
sVerrape
p664
I1438
sVlabeled
p665
I452
sVvalues
p666
I1439
sVcan
p667
I132
sVfollowing
p668
I340
sVmaking
p669
I350
sVexpiriment
p670
I621
sVlighted
p671
I1554
sVdeplicate
p672
I883
sV.to
p673
I1441
sVfigure
p674
I351
sVpredict
p675
I884
sVchip
p676
I1442
sVconfused
p677
I885
sVsample
p678
I32
sVweighting
p679
I1443
sS'<pad>'
p680
I0
sVperformed
p681
I622
sVallowed
p682
I1444
sVoccur
p683
I1445
sVrequirements
p684
I1446
sVsurroundings
p685
I1423
sVgraish
p686
I1447
sVpine
p687
I1448
sVwrite
p688
I216
sVtill
p689
I1449
sVvital
p690
I554
sVpure
p691
I886
sVplus
p692
I1450
sVveriable
p693
I1451
sVstaying
p694
I1192
sVhuge
p695
I887
sVmay
p696
I166
sVneat
p697
I849
sVspot
p698
I1454
sVcarbboard
p699
I1455
sVmatterials
p700
I1456
sVproduce
p701
I1457
sVvinigar
p702
I333
sVdate
p703
I888
sVsuch
p704
I176
sVsuck
p705
I889
sVdata
p706
I109
sVgrow
p707
I1459
sVleve
p708
I1460
sVnatural
p709
I1461
sVvarieties
p710
I1462
sVliquid
p711
I407
sVmaybe
p712
I352
sVfluent
p713
I1463
sVprovide
p714
I600
sVso
p715
I79
sVtalk
p716
I709
sV''sample
p717
I710
sVdifferc
p718
I1464
sVyears
p719
I2151
sVcourse
p720
I891
sVintroductions
p721
I1466
sVexperiments
p722
I408
sVquatative
p723
I1467
sVcold
p724
I334
sVstill
p725
I623
sVgroup
p726
I60
sVwindow
p727
I1469
sVdecreased
p728
I711
sVa.k.a
p729
I1470
sVmain
p730
I1471
sVuptake
p731
I1472
sVhappened
p732
I453
sVrecreate
p733
I624
sVmatches
p734
I1473
sVprocesses
p735
I2153
sVuntensil
p736
I1476
sVtouching
p737
I892
sVhalf
p738
I625
sVnot
p739
I55
sVsorted
p740
I1477
sVnow
p741
I430
sVgaggles
p742
I1593
sVnor
p743
I712
sVdensities
p744
I1478
sV/plastic/etc
p745
I1479
sVname
p746
I431
sVqv
p747
I1480
sVroch
p748
I1481
sVrock
p749
I268
sVtuching
p750
I1482
sVretrieve
p751
I1483
sVvingear
p752
I1484
sVeg
p753
I893
sVea
p754
I1485
sVbalanced
p755
I1486
sVex
p756
I713
sVeu
p757
I1487
sVhappen
p758
I478
sVcalling
p759
I2155
sVadequately
p760
I1489
sVtempuratures
p761
I1768
sVshown
p762
I479
sVcontainer
p763
I37
sV3rd
p764
I1491
sVfactors
p765
I714
sV100g
p766
I1492
sVfurthermore
p767
I1493
sVshowa
p768
I1494
sVradicate
p769
I1495
sVincrease
p770
I676
sVcontained
p771
I626
sVinvestigation
p772
I299
sVimperative
p773
I1496
sVemerged
p774
I1497
sVble
p775
I1498
sVvenables
p776
I1499
sVcorrect
p777
I325
sVshows
p778
I1086
sVlag
p779
I1500
sVprocedure.you
p780
I1501
sVpossibility
p781
I1502
sVquite
p782
I894
sVexplang
p783
I1702
sV10ml
p784
I1503
sVcontaner
p785
I1504
sVthing
p786
I108
sVplace
p787
I149
sVstuff
p788
I2156
sVthink
p789
I219
sVwaited
p790
I1505
sVfirst
p791
I89
sVmuche
p792
I1508
sVomitted
p793
I1509
sVvariables
p794
I300
sVrins
p795
I1510
sVone
p796
I65
sVlong
p797
I143
sVdirectly
p798
I895
sVcarry
p799
I1511
sVimpossible
p800
I716
sVopen
p801
I896
sVsize
p802
I80
sVgiven
p803
I249
sVsheet
p804
I897
sVthirdly
p805
I717
sVplastic
p806
I103
sVindicate
p807
I432
sV2
p808
I156
sVconstants
p809
I898
sV1g
p810
I1512
sVwhite
p811
I899
sVbits
p812
I1513
sVindependant
p813
I1514
sVinclud
p814
I1967
sVeyes
p815
I1515
sVrefereced
p816
I1516
sVmostly
p817
I901
sVthat
p818
I30
sVhumans
p819
I2160
sVbe,1telling
p820
I1518
sVaccurately
p821
I505
sVpacket
p822
I2161
sVneccisary
p823
I1519
sVattempt
p824
I1520
sVsticlenx
p825
I1521
sVcopy
p826
I1522
sVthan
p827
I183
sVspecify
p828
I197
sV10
p829
I834
sVanalyze
p830
I1524
sVeffective
p831
I902
sVrequire
p832
I903
sVr
p833
I1525
sVwere
p834
I64
sVpoisoning
p835
I1526
sVoutcome
p836
I369
sV1.
p837
I326
sVand
p838
I17
sVgathering
p839
I904
sVtgoing
p840
I1527
sVremained
p841
I1528
sVann
p842
I1529
sVturned
p843
I1530
sVlocations
p844
I1531
sVsay
p845
I88
sVsaw
p846
I905
sVany
p847
I201
sVsat
p848
I906
sVinfarmation
p849
I1532
sVnote
p850
I1533
sVequipment
p851
I454
sVtake
p852
I269
sVobjective
p853
I908
sVwch
p854
I1318
sVreplicat
p855
I909
sVbegin
p856
I627
sVsure
p857
I163
sVmultiple
p858
I426
sVnormal
p859
I910
sVtrack
p860
I911
sVknew
p861
I628
sVcleares
p862
I1537
sVclearer
p863
I718
sVfrim
p864
I1538
sVimportantly
p865
I556
sVclassified.temperature
p866
I1539
sVpair
p867
I912
sVcleared
p868
I1540
sVsamples-they
p869
I1541
sVpeice
p870
I913
sVespecially
p871
I914
sVconsidered
p872
I1542
sVaverage
p873
I506
sVlater
p874
I719
sVsteady
p875
I1543
sVreplications
p876
I1544
sVduplication
p877
I1545
sVprecise
p878
I629
sVdrastically
p879
I1546
sVshow
p880
I301
sVconteiner
p881
I1547
sVkwow
p882
I1548
sVinconsistent
p883
I1399
sVlabel
p884
I153
sVfifth
p885
I1550
sVground
p886
I1551
sVremoved
p887
I460
sVratio
p888
I630
sVtitle
p889
I915
sVstate
p890
I147
sVtexture
p891
I1553
sVeither
p892
I725
sVonly
p893
I242
sVgoing
p894
I165
sVnonce
p895
I1440
sVpices
p896
I1555
sVvinegar-filled
p897
I1556
sVget
p898
I139
sV0.4g
p899
I1557
sVrept
p900
I1558
sVdesignated
p901
I1453
sVtruly
p902
I1458
sVsubmerge
p903
I1561
sVcylinders
p904
I1562
sVregarding
p905
I1563
sV1.how
p906
I1564
sVsorroundings
p907
I1565
sVscientist
p908
I631
sVreely
p909
I1566
sVwhere
p910
I123
sVprocedure.i
p911
I1568
sV11grams
p912
I1569
sVsamples.also
p913
I1570
sVwhatknd
p914
I1571
sVseat
p915
I1572
sVappropiately
p916
I1752
sVrinses
p917
I1574
sVruined
p918
I917
sVfails
p919
I918
sVthease
p920
I1575
sVways
p921
I720
sVmeasuremt
p922
I1576
sVmaterials
p923
I63
sV3
p924
I152
sVbetween
p925
I312
sVaffecting
p926
I1577
sVreading
p927
I138
sVinorder
p928
I632
sVacross
p929
I919
sVdecks
p930
I1578
sVinappropriately
p931
I1579
sVdensely
p932
I1581
sVcome
p933
I327
sV*ask
p934
I1164
sVconcentrated
p935
I1582
sVreaction
p936
I920
sV.how
p937
I921
sVmany
p938
I151
sVaccording
p939
I1584
sVtour
p940
I1585
sVsoaking
p941
I1586
sVcomes
p942
I1587
sVamong
p943
I1588
sVcolor
p944
I922
sVpor
p945
I1589
sVperiod
p946
I385
sV6.
p947
I1590
sVrepeta
p948
I1591
sVretests
p949
I1592
sVrinsen
p950
I2170
sVassociated
p951
I1428
sVcapable
p952
I924
sVcombined
p953
I1594
sVobserve
p954
I925
sV.the
p955
I1595
sVsitand
p956
I2148
sVamant
p957
I1596
sVhidden
p958
I1597
sVthose
p959
I313
sVcase
p960
I508
sVmyself
p961
I926
sVthese
p962
I140
sV50g
p963
I1598
sVin.this
p964
I1599
sVn't
p965
I67
sVinvestigating
p966
I633
sVerato
p967
I1600
sVmetric
p968
I927
sVduplicating
p969
I1601
sVmiddle
p970
I1602
sVsomeone
p971
I481
sVinformation.i
p972
I1603
sVnumbe
p973
I1604
sVhalause
p974
I1605
sVincubate
p975
I1606
sVstickers
p976
I928
sVeveryday
p977
I1607
sVspecifcly
p978
I1608
sVdifferent
p979
I51
sVtoknowis
p980
I1609
sVassure
p981
I1052
sV11.2
p982
I513
sVcheck
p983
I474
sVvineagar
p984
I929
sVdistilled
p985
I93
sVgraft
p986
I1611
sVfinish
p987
I509
sV-amount
p988
I930
sVinbetween
p989
I931
sVchanging
p990
I722
sVvalidate
p991
I1613
sVdrain
p992
I1615
sV2.you
p993
I1616
sVsafely
p994
I2177
sVrepercat
p995
I1619
sVwithout
p996
I193
sVsolve
p997
I723
sVbottle
p998
I1620
sVinability
p999
I1941
sVsangle
p1000
I1621
sVexpireiment
p1001
I1622
sVsun.etc
p1002
I1623
sVindentical
p1003
I1624
sVbeing
p1004
I135
sVrest
p1005
I589
sVreapit
p1006
I932
sVcompromising
p1007
I2178
sVtouch
p1008
I1626
sVspeed
p1009
I1627
sV4.a
p1010
I2289
sVaditional
p1011
I634
sVsampled
p1012
I1628
sVrilin
p1013
I1629
sVthinking
p1014
I1630
sVgrams.they
p1015
I1631
sVseems
p1016
I635
sVimprovement
p1017
I1632
sVinstrument
p1018
I557
sVbackround
p1019
I934
sV4
p1020
I119
sVsamples
p1021
I19
sVused.it
p1022
I1633
sVaspects
p1023
I1634
sVaround
p1024
I724
sVread
p1025
I757
sVvinagar
p1026
I1636
sVmot
p1027
I1637
sVdark
p1028
I386
sVusing
p1029
I128
sVsume
p1030
I1639
sVsampling
p1031
I1640
sVvague
p1032
I511
sVtowel
p1033
I935
sVstranger
p1034
I1641
sVpounds
p1035
I1642
sVlableing
p1036
I1643
sV've
p1037
I433
sVnose
p1038
I923
sVfully
p1039
I936
sVattempting
p1040
I2166
sVexposed
p1041
I937
sVmasing
p1042
I1644
sVspecified
p1043
I342
sVprovided
p1044
I938
sVdimensions
p1045
I1645
sVconfirm
p1046
I1646
sVtube
p1047
I482
sVrecorded
p1048
I409
sVsumples
p1049
I1647
sVreaserching
p1050
I1648
sVgoogles
p1051
I1649
sVrefer
p1052
I1650
sVmeasuring
p1053
I353
sVyoucan
p1054
I1651
sVseconds
p1055
I939
sVretains
p1056
I1653
sVviger
p1057
I1654
sVthrow
p1058
I726
sV_
p1059
I940
sVcomparison
p1060
I1022
sVstone
p1061
I483
sV-identify
p1062
I1656
sVof
p1063
I7
sVincluded.for
p1064
I1657
sVstons
p1065
I1658
sVstand
p1066
I941
sVwold
p1067
I1659
sVmixed
p1068
I778
sVov
p1069
I1661
sVvngr
p1070
I1793
sVos
p1071
I1663
sVor
p1072
I49
sVwoll
p1073
I1664
sVtofint
p1074
I1665
sVinclusion
p1075
I1666
sVcontent.they
p1076
I1760
sVinstruments
p1077
I1667
sV-size
p1078
I1668
sVrenuminering
p1079
I1669
sVrising
p1080
I1670
sVdetermine
p1081
I71
sVheated
p1082
I1671
sVlastly
p1083
I124
sVyour
p1084
I161
sVstare
p1085
I1672
sVmeasured.the
p1086
I1673
sVformulate
p1087
I1674
sVprepare
p1088
I1675
sVarea
p1089
I270
sVremoving
p1090
I1676
sVthere
p1091
I85
sVstart
p1092
I221
sVlow
p1093
I1677
sVlot
p1094
I370
sVcomplete
p1095
I295
sVenough
p1096
I480
sVcabinet
p1097
I1679
sVnumeric
p1098
I1795
sVunreliable
p1099
I1681
sVtrying
p1100
I233
sVwith
p1101
I54
sVhappening
p1102
I705
sVnaming
p1103
I2284
sVdefine
p1104
I2185
sVdetailed
p1105
I942
sVad
p1106
I1682
sVcreat
p1107
I1683
sVcertain
p1108
I484
sVdescribe
p1109
I434
sVam
p1110
I198
sVances
p1111
I1684
sVgeneral
p1112
I907
sVas
p1113
I66
sVreliability
p1114
I1685
sVat
p1115
I92
sVorganised
p1116
I1798
sVfill
p1117
I558
sVincorrect
p1118
I1687
sVagain
p1119
I314
sVseparete
p1120
I1688
sVexperimen
p1121
I1689
sV-compare
p1122
I1690
sVstorage
p1123
I1691
sVvalid
p1124
I303
sV5
p1125
I455
sVyou
p1126
I11
sVpoor
p1127
I636
sV*include
p1128
I1692
sVseparate
p1129
I174
sVstudents
p1130
I87
sVtime
p1131
I125
sVforgot
p1132
I388
sVspesify
p1133
I1693
sVincludes
p1134
I2246
sVgrupe
p1135
I1695
sVimportant
p1136
I167
sVincluded
p1137
I191
sVbuilding
p1138
I1697
sVbooked
p1139
I1698
sVcalls
p1140
I1699
sVlimestones
p1141
I1700
sVacids
p1142
I943
sVmask
p1143
I1701
sVviner
p1144
I944
sVments
p1145
I1614
sVpassed
p1146
I1828
sVu
p1147
I485
sVsawing
p1148
I1703
sValright
p1149
I945
sVonce
p1150
I354
sVstarting
p1151
I110
sVoriginal
p1152
I512
sVrepresent
p1153
I1075
sVall
p1154
I73
sVforget
p1155
I946
sVwashed
p1156
I471
sVlack
p1157
I1083
sVdish
p1158
I947
sVfollow
p1159
I371
sVcauses
p1160
I948
sVduplicated
p1161
I1706
sValering
p1162
I1104
sVreferring
p1163
I1708
sVtv
p1164
I1709
sVincas
p1165
I1710
sVsubjected
p1166
I1711
sVlaid
p1167
I1712
sVrepeted
p1168
I1713
sVto
p1169
I4
sVtable.in
p1170
I1714
sVth
p1171
I1715
sVti
p1172
I949
sVta
p1173
I950
sVsound
p1174
I1716
sVworse
p1175
I1717
sVsitting
p1176
I486
sVvery
p1177
I250
sVvinegars
p1178
I729
sVwell.^p1.vinegar
p1179
I1719
sVfat
p1180
I1720
sV7.1g
p1181
I1721
sVfall
p1182
I1162
sVdifference
p1183
I107
sVcondition
p1184
I951
sVwashes
p1185
I1417
sVwashing
p1186
I952
sVsmals
p1187
I1724
sV--
p1188
I1725
sVlist
p1189
I206
sVworded
p1190
I1726
sVlarge
p1191
I271
sVinclode
p1192
I1727
sVsmall
p1193
I487
sVdirew
p1194
I1194
sVrate
p1195
I954
sVdesign
p1196
I730
sVcups.this
p1197
I1729
sVpass
p1198
I955
sVfurther
p1199
I956
sVwhat
p1200
I18
sVdarkness
p1201
I957
sVclock
p1202
I1730
sVsun
p1203
I435
sVusin
p1204
I958
sVreplicability
p1205
I1731
sVcontainers_open/closed
p1206
I1732
sVmethod
p1207
I731
sV10.4g
p1208
I840
sVfull
p1209
I637
sVaddedacontrol
p1210
I1382
sVloose
p1211
I1735
sVanswers
p1212
I959
sVhours
p1213
I113
sVdirections
p1214
I372
sVi.e
p1215
I732
sV2conclusion.the
p1216
I1736
sVlabs
p1217
I1807
sVahead
p1218
I1738
sVexperimenting
p1219
I733
sVexperience
p1220
I960
sVamount
p1221
I42
sVarent
p1222
I961
sVpice
p1223
I734
sVvig
p1224
I1739
sVacheive
p1225
I1740
sVvaugue
p1226
I1741
sVask
p1227
I1742
sVw/
p1228
I735
sVestablish
p1229
I1743
sVreadily
p1230
I1744
sVeye
p1231
I962
sVnothings
p1232
I1745
sVaso
p1233
I1746
sVtwo
p1234
I304
sVcomparing
p1235
I1747
sV6
p1236
I355
sVtaken
p1237
I436
sVmaibe
p1238
I1748
sVmore
p1239
I59
sVusing.i
p1240
I1749
sVknows
p1241
I1750
sVsubstances
p1242
I343
sVputin
p1243
I1612
sVtested
p1244
I335
sVbasically
p1245
I1380
sVparticular
p1246
I963
sVknown
p1247
I410
sVkeeping
p1248
I706
sVhour
p1249
I344
sVmaly
p1250
I1754
sVequation
p1251
I1755
sVfast
p1252
I1756
sVremain
p1253
I736
sVlearn
p1254
I1757
sVmarble
p1255
I129
sVcompare
p1256
I315
sVstated
p1257
I277
sVvinegar.this
p1258
I1816
sVretest
p1259
I1759
sVstates
p1260
I456
sVnumbers
p1261
I682
sVsense
p1262
I638
sVnecesary
p1263
I1761
sVlacks
p1264
I1762
sVdeterime
p1265
I1763
sV!
p1266
I639
sVinformation
p1267
I34
sVneeds
p1268
I131
sVgoal
p1269
I964
sVrather
p1270
I737
sVstayed
p1271
I1764
sVidem
p1272
I1765
sVinformatiou
p1273
I1766
sVstir
p1274
I1767
sVtried
p1275
I1490
sVcontainers.nothing
p1276
I1769
sVa
p1277
I33
sVsence
p1278
I1770
sVprocedure.the
p1279
I1771
sVperhaps
p1280
I1772
sVdentical
p1281
I1773
sVsect
p1282
I1774
sVshade
p1283
I640
sVslaceal
p1284
I2199
sVhelp
p1285
I260
sVsook
p1286
I1776
sVsoon
p1287
I1777
sVheld
p1288
I641
sVorganize
p1289
I824
sVthrough
p1290
I739
sVsame
p1291
I70
sVsambles
p1292
I1778
sVexperiment/lab
p1293
I1610
sVits
p1294
I278
sVfiding
p1295
I1779
sV24
p1296
I106
sVmessed
p1297
I1780
sV20
p1298
I966
sVprocessed
p1299
I2290
sVdifferet
p1300
I967
sVconclusien
p1301
I1781
sVbecare
p1302
I1782
sVactually
p1303
I437
sVabsence
p1304
I1783
sVruining
p1305
I1784
sV2.
p1306
I261
sV7grams
p1307
I1785
sVmight
p1308
I202
sValter
p1309
I740
sVwouldn
p1310
I1786
sVgood
p1311
I279
sVvinger
p1312
I642
sVmeathod
p1313
I1787
sVbigger
p1314
I559
sVinstructions
p1315
I968
sVeasily
p1316
I741
sVbegeing
p1317
I1789
sValways
p1318
I643
sVanothe
p1319
I1790
sVlabeling
p1320
I514
sVneccessary
p1321
I969
sVfound
p1322
I438
sVrepeating
p1323
I742
sVwere.the
p1324
I1791
sVmarry
p1325
I1792
sVrepelilicn
p1326
I1662
sVreactions
p1327
I1037
sVweight
p1328
I256
sVhard
p1329
I644
sVidea
p1330
I560
sVprocedur
p1331
I1680
sVaccuratly
p1332
I1796
sVinvestigated
p1333
I1475
sVmeasurement
p1334
I234
sVprocedue
p1335
I1686
sVinfomation
p1336
I2035
sVcontainers.they
p1337
I1452
sVreally
p1338
I488
sV24hours
p1339
I970
sVmissed
p1340
I645
sVoccurd
p1341
I1800
sVsince
p1342
I389
sVresearch
p1343
I1801
sVsafety
p1344
I390
sVflowed
p1345
I1802
sV7
p1346
I743
sV1.you
p1347
I1803
sV11.2.the
p1348
I1804
sVasp
p1349
I1805
sVguess
p1350
I561
sVnesserry
p1351
I1806
sVreguarding
p1352
I1737
sVmml
p1353
I1808
sVreason
p1354
I562
sVbase
p1355
I1809
sVput
p1356
I44
sVviniger
p1357
I457
sV1-6
p1358
I2207
sVbeginning
p1359
I391
sVvinegar.what
p1360
I1811
sV3.another
p1361
I1825
sVretained
p1362
I1812
sVreadly
p1363
I1813
sVcaused
p1364
I1814
sVneeding
p1365
I1815
sVgroops
p1366
I1758
sVdecently
p1367
I1817
sVconducted
p1368
I744
sVwither
p1369
I1818
sVadditonal
p1370
I971
sVinformations
p1371
I1819
sVmajor
p1372
I563
sVlimestone
p1373
I122
sVdont
p1374
I515
sVrefreglatar
p1375
I1820
sVnumber
p1376
I262
sVdone
p1377
I272
sVwell.you
p1378
I1821
sVslower
p1379
I1822
sVcups
p1380
I184
sVmiss
p1381
I1823
sVpourred
p1382
I1652
sVdiffer
p1383
I564
sVtemperature
p1384
I101
sVtwenty
p1385
I745
sVleast
p1386
I356
sVwonderful
p1387
I1826
sVexpiremental
p1388
I1157
sVdealing
p1389
I1827
sVstore
p1390
I516
sVtoo
p1391
I223
sVstatement
p1392
I411
sValse
p1393
I1840
sVpart
p1394
I517
sVbelieve
p1395
I565
sVimformation
p1396
I1829
sVkind
p1397
I105
sVb
p1398
I646
sVdouble
p1399
I972
sVinstruction
p1400
I1830
sVrecording
p1401
I746
sVuse.for
p1402
I1831
sVdetermined
p1403
I235
sVsupposed
p1404
I345
sVprocedural
p1405
I1832
sVexparimenting
p1406
I1833
sVheaviest
p1407
I1834
sVsentences
p1408
I1835
sVconcentration
p1409
I566
sVlid
p1410
I973
sVrinced
p1411
I1836
sVzero
p1412
I974
sVdepending
p1413
I747
sVspecity
p1414
I1837
sVmultipule
p1415
I1838
sVprocedore
p1416
I1839
sValso
p1417
I25
sVfinding
p1418
I458
sVvinaggar
p1419
I1325
sVplay
p1420
I975
sVadded
p1421
I141
sVelectric
p1422
I1841
sVmeasures
p1423
I748
sVeffecting
p1424
I976
sVchart
p1425
I439
sVreact
p1426
I647
sVmost
p1427
I280
sVplan
p1428
I1842
sVsignificant
p1429
I977
sVcomparisons
p1430
I2213
sVnothing
p1431
I567
sVmeasured
p1432
I357
sVrefrigerator
p1433
I978
sVkg
p1434
I979
sVgrams
p1435
I236
sVke
p1436
I1843
sVexpariment
p1437
I648
sVclear
p1438
I243
sVsometimes
p1439
I1844
sVcover
p1440
I459
sVunreasonable
p1441
I1845
sVtongs
p1442
I1846
sVh2o
p1443
I1507
sVclean
p1444
I568
sVweigh
p1445
I224
sVrealised
p1446
I2214
sVtubes
p1447
I1849
sVstones
p1448
I569
sVinvalide
p1449
I1850
sVesimate
p1450
I1851
sVevaporation
p1451
I980
sVrelation
p1452
I1852
sVsnoch
p1453
I1853
sVfind
p1454
I136
sVimpact
p1455
I649
sVpe
p1456
I2263
sVsimulating
p1457
I1854
sVruin
p1458
I1855
sVwriter
p1459
I981
sVmassing
p1460
I650
sVstarters
p1461
I982
sVfailed
p1462
I749
sVpretty
p1463
I983
sVfactor
p1464
I579
sVcup/beaker
p1465
I1857
sValloted
p1466
I1858
sVevapoltantiy
p1467
I1859
sVexpinment
p1468
I1860
sVanther
p1469
I2022
sVdependent
p1470
I316
sVsunny
p1471
I984
sV-you
p1472
I750
sVlisted
p1473
I358
sVclosely
p1474
I1862
sVduring
p1475
I317
sVfor30
p1476
I1863
sVreeplicate
p1477
I1864
sVdiffient
p1478
I1865
sVremove
p1479
I207
sVinvestigate
p1480
I985
sVgloves
p1481
I570
sVanalize
p1482
I2127
sVwrote
p1483
I986
sVset
p1484
I359
sVary
p1485
I1867
sVliasis
p1486
I1868
sVvine
p1487
I1869
sVsee
p1488
I157
sVindividual
p1489
I571
sVare
p1490
I36
sVclose
p1491
I489
sVbark
p1492
I1870
sVmatter
p1493
I605
sVsapposed
p1494
I1871
sV/hot
p1495
I1872
sVkneed
p1496
I1873
sVprobably
p1497
I751
sVconditions
p1498
I360
sVlabeling.a
p1499
I1874
sVknowing
p1500
I412
sVdifferece
p1501
I1875
sVmissing
p1502
I251
sVuntouched
p1503
I1877
sVshaped
p1504
I1935
sVpoored
p1505
I572
sVobsecvate
p1506
I1878
sVfrustred
p1507
I1879
sVboth
p1508
I573
sVc
p1509
I752
sVlast
p1510
I172
sV0.0g
p1511
I1880
sVballance
p1512
I1881
sVrepcated
p1513
I1882
sValot
p1514
I988
sVdidnot
p1515
I1883
sVwhole
p1516
I346
sVpoint
p1517
I490
sVsimple
p1518
I1884
sVwhatever
p1519
I1885
sVregulated
p1520
I1886
sVthroughout
p1521
I989
sVexperiment.the
p1522
I1887
sVdescribed
p1523
I1888
sVinstilled
p1524
I1889
sVcreate
p1525
I518
sVdue
p1526
I753
sVreciprocate
p1527
I1890
sVpontentially
p1528
I1468
sVcollected
p1529
I1892
sVph
p1530
I392
sVtreatment
p1531
I1893
sVrefered
p1532
I1894
sVprecision
p1533
I1895
sVelse
p1534
I361
sVunderstand
p1535
I519
sViformation
p1536
I990
sVre-test
p1537
I1896
sVtemporter
p1538
I1897
sVlook
p1539
I491
sVsolid
p1540
I991
sVstraight
p1541
I1087
sVmll
p1542
I1898
sVwhile
p1543
I413
sVaccidently
p1544
I1899
sVerror
p1545
I1900
sVexpierence
p1546
I1131
sVdaght
p1547
I1902
sVoverlooked
p1548
I1903
sVcontainers.also
p1549
I1418
sVvinigars
p1550
I1904
sVconfound
p1551
I1905
sVitself
p1552
I1906
sVtriple
p1553
I492
sVready
p1554
I755
sV34
p1555
I1907
sVincreased
p1556
I2226
sVproceeduce
p1557
I1908
sVregulate
p1558
I1909
sVremocture
p1559
I1910
sV-1.3g
p1560
I1156
sVshorter
p1561
I993
sVrules
p1562
I1635
sVunderstaned
p1563
I1911
sVadvise
p1564
I1912
sVhigher
p1565
I758
sVused
p1566
I48
sVquatetive
p1567
I1913
sVlevels
p1568
I759
sVuses
p1569
I994
sVpurpose
p1570
I273
sVnecessity
p1571
I1914
sVwhattemperature
p1572
I1115
sVkno
p1573
I1916
sVlower
p1574
I995
sVtask
p1575
I996
sVspent
p1576
I1917
sVperson
p1577
I291
sVsolids
p1578
I997
sVbigof
p1579
I1394
sVdesier
p1580
I1919
sVconsistency
p1581
I1920
sVentry
p1582
I1921
sVstating
p1583
I1223
sVthings
p1584
I146
sVsamples/what
p1585
I1989
sVproduct
p1586
I1032
sVshape
p1587
I292
sV-there
p1588
I1923
sVcoul
p1589
I1924
sVletting
p1590
I651
sVcut
p1591
I1925
sVreaders
p1592
I760
sVsource
p1593
I998
sVcud
p1594
I1926
sVlocation
p1595
I574
sVtabled
p1596
I1927
sVlimes
p1597
I1928
sValsohelp
p1598
I1929
sVremaining
p1599
I461
sVbin
p1600
I1930
sV...
p1601
I999
sVforces
p1602
I1567
sVlacking
p1603
I652
sVformat
p1604
I1932
sVbig
p1605
I142
sVshowing
p1606
I653
sVbic
p1607
I1933
sVquestion4
p1608
I1298
sVcomperable
p1609
I1934
sVbit
p1610
I654
sVhelpful
p1611
I283
sVseperate
p1612
I305
sVd
p1613
I655
sV-repeat
p1614
I1580
sVfollows
p1615
I1000
sVsamples.they
p1616
I2230
sVseparately
p1617
I1329
sVcollect
p1618
I1936
sVindication
p1619
I1937
sVessential
p1620
I762
sVvapor
p1621
I1938
sVrepricant
p1622
I1939
sVcontainer.you
p1623
I1940
sVoften
p1624
I1346
sVabsolutely
p1625
I1942
sVsome
p1626
I104
sVback
p1627
I763
sV3.2
p1628
I1943
sVexamples
p1629
I1002
sVgrarns
p1630
I1944
sV7.2g
p1631
I1945
sVadditionaly
p1632
I1946
sVscale
p1633
I225
sVdescribing
p1634
I1003
sVtools
p1635
I510
sV11,2-wood
p1636
I916
sVper
p1637
I1004
sVeliminate
p1638
I1947
sVbetterunderstand
p1639
I1948
sVt
p1640
I575
sVbe
p1641
I20
sVrun
p1642
I1005
sVreach
p1643
I1949
sVmutch
p1644
I1950
sVstep
p1645
I78
sVthewater
p1646
I1951
sVvingnr
p1647
I1952
sVsubtract
p1648
I656
sVby
p1649
I194
sVvine-gar
p1650
I1953
sVanything
p1651
I362
sVrange
p1652
I657
sVidential
p1653
I1954
sVblock
p1654
I1955
sVcredible
p1655
I1956
sVseeing
p1656
I1957
sVeaten
p1657
I1958
sVinto
p1658
I43
sVwithin
p1659
I658
sVappropriate
p1660
I1959
sVnsr
p1661
I1961
sVcontainer.also
p1662
I1962
sVrows
p1663
I1963
sVextremely
p1664
I1964
sV3.how
p1665
I1965
sVplacing
p1666
I414
sVquestion
p1667
I521
sVwouldneed
p1668
I2019
sVspecifically
p1669
I415
sVvinager
p1670
I659
sVhandler
p1671
I1966
sVinformetion
p1672
I900
sVforward
p1673
I1968
sV:
p1674
I203
sVslurhnf
p1675
I1969
sVtorince
p1676
I1970
sVan
p1677
I148
sVstep.the
p1678
I1971
sVatop
p1679
I1972
sVcloth
p1680
I1973
sVproperly
p1681
I1974
sVling
p1682
I1975
sVline
p1683
I1006
sVinfo
p1684
I393
sV1.5g
p1685
I1976
sVnreeus
p1686
I1977
sVincase
p1687
I1007
sVup
p1688
I226
sVus
p1689
I187
sVpaired
p1690
I1978
sVpiecesof
p1691
I1979
sV're
p1692
I363
sVdoors
p1693
I1931
sVsimilar
p1694
I819
sV4.should
p1695
I2164
sVstoring
p1696
I1008
sVconstant
p1697
I274
sVacidity
p1698
I766
sVinfluence
p1699
I1981
sVstaldhs
p1700
I1982
sVsingle
p1701
I394
sVchaw
p1702
I1983
sV%
p1703
I1009
sVamounts
p1704
I294
sVpeace
p1705
I1984
sVext
p1706
I1847
sVinvalid
p1707
I767
sV-the
p1708
I1010
sVb/c
p1709
I1986
sVanser
p1710
I1987
sVmoch
p1711
I1988
sVmock
p1712
I1227
sVdraw
p1713
I1990
sVelements
p1714
I768
sVproblems
p1715
I1991
sVprepared
p1716
I1992
sVmeaning
p1717
I1011
sVallowing
p1718
I769
sVdiffent
p1719
I1993
sVstructure
p1720
I1012
sVmaterial.the
p1721
I1013
sVestablished
p1722
I1994
sVrequired
p1723
I576
sVimplied
p1724
I1995
sVweights
p1725
I1996
sVfar
p1726
I1718
sVrequires
p1727
I1997
sVhaving
p1728
I416
sVrinse
p1729
I96
sVevenly
p1730
I992
sVresults
p1731
I90
sVwindy
p1732
I1999
sVgo
p1733
I318
sVdisintegration
p1734
I2000
sVexperiement
p1735
I1014
sVdevendent
p1736
I2001
sVmigh
p1737
I2002
sVsene
p1738
I2003
sVacurate
p1739
I2004
sVmigt
p1740
I2005
sVinclude
p1741
I94
sVresources
p1742
I2006
sVoutside
p1743
I507
sVassuming
p1744
I2241
sVputting
p1745
I208
sVpouredinto
p1746
I2008
sVtelling
p1747
I770
sVcategories
p1748
I2009
sVentire
p1749
I2010
sV-in
p1750
I771
sVlight/dark
p1751
I2011
sVnotes
p1752
I1015
sVtry
p1753
I373
sVpout
p1754
I2048
sVmass.however
p1755
I2012
sVsmaller
p1756
I1016
sVsifting
p1757
I2013
sVcotainers
p1758
I2014
sVhypothisis
p1759
I2015
sVreplicated
p1760
I417
sVacid
p1761
I168
sVmeasurment
p1762
I2016
sVplays
p1763
I2017
sVgiving
p1764
I2018
sVexpressed
p1765
I2020
sVindicated.all
p1766
I2021
sVwaiting
p1767
I660
sVexperiment
p1768
I15
sV.also
p1769
I1861
sV;
p1770
I319
sVconlainer
p1771
I2023
sVchose
p1772
I2024
sVconsistant
p1773
I1017
sVdesired
p1774
I2025
sVobjects
p1775
I347
sVlet
p1776
I173
sVsink
p1777
I1018
sVothers
p1778
I577
sVconsideration
p1779
I2026
sVvinegar
p1780
I14
sVgreas
p1781
I2027
sVreceive
p1782
I661
sVinvolved
p1783
I2028
sVuntil
p1784
I662
sV30
p1785
I169
sVleaving
p1786
I1019
sVsuggests
p1787
I1705
sVproducts
p1788
I1020
sV3.
p1789
I263
sVsubmerged
p1790
I462
sVopinion
p1791
I772
sVmakes
p1792
I578
sVthats
p1793
I523
sVnamed
p1794
I773
sV1.the
p1795
I2030
sVapple
p1796
I2031
sV9.8g
p1797
I663
sVdecrease
p1798
I774
sVnames
p1799
I257
sVredo
p1800
I775
sVlime
p1801
I2032
sVwarm/cold
p1802
I2033
sVuse
p1803
I46
sVfrom
p1804
I133
sV&
p1805
I306
sVquanity
p1806
I2034
sVnext
p1807
I320
sVfew
p1808
I307
sVduplicate
p1809
I522
sVdiffrence
p1810
I2036
sVthemselves
p1811
I1021
sVremaing
p1812
I2038
sVrepettions
p1813
I2039
sVsort
p1814
I2040
sVgained
p1815
I2041
sVon
p1816
I77
sVstarted
p1817
I374
sVwriten
p1818
I1856
sVpurposes
p1819
I1025
sVfreezing
p1820
I1559
sVtrail
p1821
I2042
sVlabelled
p1822
I2043
sV''samples
p1823
I1024
sVdistilling
p1824
I2248
sV-0.4g
p1825
I2045
sVvenegar
p1826
I2046
sVf
p1827
I2047
sVthis
p1828
I29
sVpour
p1829
I52
sVanywhere
p1830
I2049
sVfulfill
p1831
I2050
sVdrops
p1832
I776
sVdidnt
p1833
I777
sVdissolve
p1834
I2051
sVcontroy
p1835
I2052
sVcontrol
p1836
I102
sVrepllcate
p1837
I2053
sVocuple
p1838
I2054
sVweaker
p1839
I2055
sVrinsing
p1840
I395
sVprocess
p1841
I524
sV0.0
p1842
I2056
sVpovide
p1843
I2057
sV0.4
p1844
I1023
sVpieces
p1845
I164
sVhigh
p1846
I2058
sVeffectively
p1847
I1026
sVsomething
p1848
I396
sVwater/
p1849
I2059
sVparticles
p1850
I1707
sVamthing
p1851
I2061
sVmisssing
p1852
I2062
sVvaried
p1853
I2063
sVsit
p1854
I145
sVprotect
p1855
I2188
sVsix
p1856
I1027
sVinstead
p1857
I244
sVsampes
p1858
I2064
sVoz
p1859
I1389
sVwatch
p1860
I580
sVow
p1861
I1660
sVbelongings
p1862
I2067
sVracks
p1863
I2068
sVrealized
p1864
I2069
sVlight
p1865
I397
sVcounter
p1866
I2070
sVallow
p1867
I281
sVmove
p1868
I581
sVdv
p1869
I2071
sVincluding
p1870
I664
sVlooks
p1871
I1028
sVindipendant
p1872
I2247
sVmentioned
p1873
I665
sVunchecked
p1874
I2072
sVwoukd
p1875
I2073
sV1
p1876
I200
sVouter
p1877
I1465
sVdecay
p1878
I2075
sVchosen
p1879
I1029
sVshold
p1880
I2076
sVmasses
p1881
I217
sVchoose
p1882
I779
sV9,8-marble
p1883
I2077
sVcovered
p1884
I375
sVmassed
p1885
I780
sVfourth
p1886
I1392
sVflour
p1887
I2079
sVmaterial
p1888
I75
sVdistiled
p1889
I1030
sVnade
p1890
I2080
sVmention
p1891
I264
sVexciddion
p1892
I2081
sVdas
p1893
I2082
sVacidic
p1894
I2083
sVbeeing
p1895
I781
sVday
p1896
I525
sVidentified
p1897
I1031
sVrenthstig
p1898
I1638
sVhapend
p1899
I2085
sVtray
p1900
I2086
sVencure
p1901
I2087
sVdoing
p1902
I231
sVreilabilly.you
p1903
I2088
sVmas
p1904
I555
sVoud
p1905
I2089
sV-how
p1906
I2090
sVmeasure
p1907
I112
sVour
p1908
I582
sVsatisfied
p1909
I1560
sVout
p1910
I114
sVcategory
p1911
I1033
sV'
p1912
I463
sVwich
p1913
I2091
sVcause
p1914
I782
sVmath
p1915
I2092
sVontainers
p1916
I2093
sVeco
p1917
I2094
sVsepparately
p1918
I2095
sVsamores
p1919
I2096
sVdmas
p1920
I1116
sVcompletely
p1921
I494
sVcorrosion
p1922
I2097
sVcarilified
p1923
I2098
sVg
p1924
I583
sVdetermining
p1925
I336
sVcould
p1926
I74
sVtimer
p1927
I1034
sVtimes
p1928
I267
sVspecification
p1929
I2099
sVretain
p1930
I2100
sVrepeats
p1931
I2101
sVscare
p1932
I2102
sVmintued
p1933
I2103
sVplastics
p1934
I667
sVneccesary
p1935
I2104
sVconfuse
p1936
I2105
sVreaches
p1937
I2106
sVdrastic
p1938
I2107
sVexectly
p1939
I2258
sVtheie
p1940
I2109
sVtheir
p1941
I99
sVtripple
p1942
I783
sVdoesnt
p1943
I2084
sVfinal
p1944
I440
sVexactls
p1945
I2110
sVdounds
p1946
I2111
sVexeperiment
p1947
I784
sVvingar
p1948
I526
sVexplanation
p1949
I527
sVexactly
p1950
I195
sV9.4
p1951
I754
sVchemicals
p1952
I668
sV-1.3
p1953
I2113
sVremember
p1954
I2114
sVresist
p1955
I2115
sVbxitsals
p1956
I2116
sVreacted
p1957
I2117
sVdecided
p1958
I2118
sV6th
p1959
I2119
sVexpirement
p1960
I328
sVvinegear
p1961
I2120
sVfalse
p1962
I2121
sV1.3
p1963
I1035
sVp.h
p1964
I2122
sVexpirment
p1965
I1036
sVhave
p1966
I41
sVneed
p1967
I9
sVclearly
p1968
I464
sVshe
p1969
I715
sVsoak
p1970
I785
sVmin
p1971
I321
sVable
p1972
I220
sV-temperature
p1973
I2123
sVcontact
p1974
I1214
sVmix
p1975
I786
sVwhich
p1976
I116
sVawer
p1977
I2124
sVsingl
p1978
I2125
sVaccuracy
p1979
I1038
sVunless
p1980
I2126
sVwha
p1981
I1264
sVsenses
p1982
I2186
sVwho
p1983
I584
sVeight
p1984
I1039
sV1.a
p1985
I2129
sVdevice
p1986
I787
sVsudstances
p1987
I2130
sVwhy
p1988
I158
sV^p
p1989
I76
sVgather
p1990
I348
sVstronger
p1991
I1040
sV1.3g
p1992
I2131
sVlooked
p1993
I2132
sVdetermin
p1994
I2133
sVwot
p1995
I2134
sVfact
p1996
I788
sVho
p1997
I2266
sVdifficient
p1998
I2136
sVdependant
p1999
I669
sVbring
p2000
I2137
sVprocceger
p2001
I2138
sVrough
p2002
I1405
sVlonger
p2003
I387
sVstaff
p2004
I670
sVwear
p2005
I2140
sVbased
p2006
I1041
sV(
p2007
I120
sV3.you
p2008
I2141
sVcontrols
p2009
I2142
sVshould
p2010
I28
sVanythings
p2011
I2143
sVcontroll
p2012
I1042
sVtape
p2013
I1043
sVaccurate.they
p2014
I2144
sVcontrole
p2015
I1044
sVhe
p2016
I671
sV-change
p2017
I2145
sVmeans
p2018
I1045
sVhypothics
p2019
I2146
sVoverall
p2020
I2147
sVbeam
p2021
I376
sVones
p2022
I585
sVwords
p2023
I789
sVdrawn
p2024
I1655
sVddition
p2025
I2149
sVrealease
p2026
I2150
sVprocedures
p2027
I308
sVstyrofoam
p2028
I2152
sVareas
p2029
I1046
sVvinnegar
p2030
I1474
sVtemp
p2031
I309
sVended
p2032
I790
sVgrap
p2033
I791
sVh
p2034
I2154
sV*say
p2035
I1488
sVmeasuredshould
p2036
I1573
sVgram
p2037
I792
sVcontain
p2038
I528
sVgrab
p2039
I2157
sV24hrs
p2040
I793
sVqn
p2041
I2158
sVguessing
p2042
I2159
sVacquired
p2043
I1048
sVexpensal
p2044
I1517
sVdesicable
p2045
I2029
sVofficialy
p2046
I2162
sVpacked
p2047
I2163
sVbraid
p2048
I1728
sVcloset
p2049
I2165
sVplaced
p2050
I189
sVlabled
p2051
I1049
sVwritten
p2052
I540
sVidentification
p2053
I2167
sVcorrectly
p2054
I1583
sVprogress
p2055
I2169
sVmass=starting
p2056
I794
sVweighing
p2057
I465
sVefficiency
p2058
I1050
sVjob
p2059
I1051
sVrinsed
p2060
I265
sVhypothesis
p2061
I196
sVkey
p2062
I586
sVlb
p2063
I2074
sVconfiguration
p2064
I2171
sVkep
p2065
I2172
sVsediments
p2066
I2173
sVinformational
p2067
I2174
sVtaking
p2068
I441
sVequal
p2069
I337
sVetc
p2070
I302
sVatleast
p2071
I2175
sVlo
p2072
I2176
sVincluded.in
p2073
I1618
sVll
p2074
I1053
sVotherwise
p2075
I529
sVunclear
p2076
I933
sVm/s
p2077
I2179
sVca
p2078
I587
sVenvironments
p2079
I1054
sVmultipletllals
p2080
I2180
sVtable
p2081
I209
sVpouring
p2082
I282
sViget
p2083
I2181
sVaddition
p2084
I329
sVvarriable
p2085
I1733
sVyar
p2086
I1055
sV3.the
p2087
I2182
sVpoured
p2088
I100
sVenvoment
p2089
I2183
sVscteanst
p2090
I2184
sVclosed
p2091
I2168
sV-observe
p2092
I1734
sVcontrolled
p2093
I398
sVsufficient
p2094
I2187
sVpreforming
p2095
I1694
sVtemparatures
p2096
I2189
sVfinished
p2097
I2190
sVlets
p2098
I2191
sVrepetition
p2099
I1056
sVpresent
p2100
I795
sVunlike
p2101
I2192
sVplain
p2102
I1057
sVwill
p2103
I72
sVar
p2104
I2193
sVmarbal
p2105
I2194
sVchaotic
p2106
I2195
sVsite
p2107
I1058
sVsurface
p2108
I418
sVweighed
p2109
I419
sVexamined
p2110
I1059
sVnessecary
p2111
I2196
sVsits
p2112
I2197
sVgreater
p2113
I2078
sVbegining
p2114
I1060
sV)
p2115
I81
sVidentities
p2116
I2283
sVbegan
p2117
I1775
sVhavre
p2118
I2200
sVparts
p2119
I2201
sVexeirimental
p2120
I2202
sVunits
p2121
I796
sVgets
p2122
I588
sVdifficult
p2123
I1061
sVnegetive
p2124
I2203
sVallweigh
p2125
I2204
sVabsorb
p2126
I2205
sVdefinately
p2127
I2206
sVeffect
p2128
I266
sVphd
p2129
I1810
sVexperimenter
p2130
I1062
sVstudent
p2131
I399
sVbalance/scale
p2132
I2208
sVexpand
p2133
I2209
sVinsure
p2134
I2210
sVresaults
p2135
I2211
sVoff
p2136
I245
sVi
p2137
I16
sVwell
p2138
I170
sVthought
p2139
I1063
sVsets
p2140
I1064
sVfirstly
p2141
I593
sVcalibrated
p2142
I1876
sVexperiment/procedure
p2143
I1848
sVdissolved
p2144
I1985
sVless
p2145
I420
sVpanature
p2146
I2215
sVaccurate
p2147
I204
sVhands
p2148
I2216
sVobtain
p2149
I797
sVsources
p2150
I798
sVstored
p2151
I495
sVaffacted
p2152
I2217
sVprblly
p2153
I2218
sVwether
p2154
I590
sVthesey
p2155
I2212
sVtaab
p2156
I2219
sVsample.i
p2157
I1788
sVdensity
p2158
I2221
sVan/my/their
p2159
I2222
sVconcusion
p2160
I2223
sS'<num>'
p2161
I2
sVadd
p2162
I98
sVwet
p2163
I2224
sVusage
p2164
I2225
sVidentical
p2165
I150
sVmeasureing
p2166
I799
sVdryed
p2167
I756
sVfive
p2168
I2227
sVknow
p2169
I13
sVmiligrams
p2170
I2228
sVloss
p2171
I2229
sVnecessary
p2172
I377
sVlike
p2173
I186
sVlost
p2174
I284
sVsizes
p2175
I493
sVloses
p2176
I2231
sVlose
p2177
I530
sVbecome
p2178
I2232
sVexperhar
p2179
I1678
sVbecause
p2180
I86
sV10,4-limestone
p2181
I2233
sVself
p2182
I1922
sVwarmer
p2183
I2234
sVproper
p2184
I2235
sVthier
p2185
I2236
sVwater.the
p2186
I2237
sVhappens
p2187
I591
sV100ml
p2188
I2238
sVcamse
p2189
I2239
sVlead
p2190
I1065
sVxpirement
p2191
I1998
sVmarkers
p2192
I2240
sVdoes
p2193
I115
sVhappend
p2194
I2007
sVweighs
p2195
I1794
sV?
p2196
I69
sVinaccurate
p2197
I1066
sVvuel
p2198
I2242
sVober
p2199
I2243
sVpaper
p2200
I800
sVvirner
p2201
I2244
sValthough
p2202
I672
sVanalyses
p2203
I2245
sVsimpler
p2204
I2037
sVbeaker
p2205
I673
sVabout
p2206
I178
sVactual
p2207
I592
sVcarried
p2208
I2044
sVgetting
p2209
I531
sVrepllcated
p2210
I2249
sVreave
p2211
I2250
sVvogue
p2212
I2251
sVequally
p2213
I1067
sVown
p2214
I1068
sVletters
p2215
I2252
sVadditionally
p2216
I596
sVkeeps
p2217
I2253
sVsoaks
p2218
I2254
sVbrands
p2219
I1696
sVweather
p2220
I674
sVactions
p2221
I1625
sVkinda
p2222
I2255
sVadditions
p2223
I2256
sVquickly
p2224
I2257
sVadditional
p2225
I45
sVnoticed
p2226
I2108
sVsolidify
p2227
I2259
sV9.8
p2228
I594
sVbiggest
p2229
I1069
sV9.1
p2230
I1070
sVbuy
p2231
I2260
sVinsures
p2232
I2261
sVhr
p2233
I2262
sVbrand
p2234
I675
sVrisht
p2235
I1891
sVmaterials.lastly
p2236
I2128
sVbut
p2237
I134
sVvolume
p2238
I275
sVbeginng
p2239
I2265
sVrepeated
p2240
I532
sVgain
p2241
I2135
sVhighest
p2242
I801
sVeat
p2243
I2267
sVpartially
p2244
I1071
sVsemples
p2245
I2268
sVmade
p2246
I285
sVplaces
p2247
I1047
sVwhether
p2248
I258
sVwish
p2249
I2269
sVvariations
p2250
I2270
sVapnn
p2251
I2271
sVrecord
p2252
I177
sVbelow
p2253
I2272
sVlimit
p2254
I2273
sVnoed
p2255
I2274
sVcontaneir
p2256
I2275
sVinformotins
p2257
I2276
sVproblem
p2258
I246
sVpiece
p2259
I144
sVminutes
p2260
I222
sViddtional
p2261
I1379
sVsteped
p2262
I2277
sVcompromises
p2263
I2278
sVutensils
p2264
I2279
sVreplica
p2265
I2280
sVpeparate
p2266
I2281
sVpermeability
p2267
I2282
sVreplicn
p2268
I2198
sVofused
p2269
I1866
sVeffected
p2270
I802
sVcompared
p2271
I595
sV'll
p2272
I466
sVdisposure
p2273
I2285
sV48
p2274
I1072
sVingredients
p2275
I2286
sVsample.if
p2276
I2287
sVtrials
p2277
I181
sV45
p2278
I2288
sVvarable
p2279
I1073
sVdetail
p2280
I533
sV4.
p2281
I534
sVother
p2282
I171
sVdetails
p2283
I496
sVmass
p2284
I27
sVconclusion
p2285
I252
sVrepeat
p2286
I160
sVkinds
p2287
I497
sVstay
p2288
I535
sVpreform
p2289
I686
sVspace
p2290
I2066
sVbalsa
p2291
I2291
sV4s
p2292
I2292
sVvineger
p2293
I364
sVexperient
p2294
I2293
sVvolumes
p2295
I2294
sV9,1-limestone
p2296
I2295
sV4g
p2297
I2296
s.