(dp0
Vlimited
p1
I61
sVall
p2
I62
sVconcept
p3
I63
sVfeedback
p4
I44
sVshow
p5
I45
sVgroundwork
p6
I64
sVmoney
p7
I65
sVcode
p8
I66
sVincluding
p9
I67
sVfind
p10
I68
sVissues
p11
I69
sVbefore
p12
I21
sVwrite
p13
I170
sVsimulating
p14
I71
sVwith
p15
I39
sVease
p16
I46
sVsolving
p17
I22
sVhelp
p18
I73
sV,
p19
I30
sVactually
p20
I74
sVto
p21
I4
sVonly
p22
I75
sVprogram
p23
I7
sVeasy
p24
I76
sVunder
p25
I77
sVtotal
p26
I131
sVmain
p27
I79
sV<
p28
I23
sVfiner
p29
I80
sVdo
p30
I81
sVtests
p31
I82
sVget
p32
I83
sVchecking
p33
I84
sVevaluate
p34
I85
sVpossible
p35
I47
sVearly
p36
I48
sVduring
p37
I86
sVone
p38
I129
sVbank
p39
I88
sVentire
p40
I89
sVbasics
p41
I90
sVlike
p42
I91
sVlevel
p43
I92
sVsolution
p44
I49
sVspecific
p45
I94
sVcollect
p46
I95
sVquick
p47
I78
sVenhance
p48
I97
sVworks
p49
I98
sVclients
p50
I147
sVcreation
p51
I100
sVidea
p52
I31
sVsee
p53
I101
sVsure
p54
I102
sVsmall
p55
I96
sVout
p56
I32
sVproject
p57
I33
sVwhat
p58
I34
sVerrors
p59
I50
sVproceeding
p60
I104
sVfor
p61
I24
sVpattern
p62
I105
sVstages
p63
I153
sVmay
p64
I175
sVdoes
p65
I107
sVprovides
p66
I51
sVapproach
p67
I35
sVminimal
p68
I108
sVsupposed
p69
I150
sVcreating
p70
I110
sVerror
p71
I151
sVcostumer
p72
I111
sVunderstanding
p73
I53
sVdesired
p74
I17
sVjob
p75
I112
sVlet
p76
I113
sVbr
p77
I25
sVaddress
p78
I114
sVi.e
p79
I115
sVintense
p80
I116
sVimprove
p81
I117
sVon
p82
I118
sVenables
p83
I119
sVactual
p84
I120
sVof
p85
I5
sVtaking
p86
I121
sVprogramming
p87
I26
sVleaving
p88
I123
sVproof
p89
I155
sVwhole
p90
I59
sVbook
p91
I125
sVfirst
p92
I54
sVbehaviors
p93
I126
sVmajor
p94
I127
sVpoint
p95
I128
sVinto
p96
I55
sVstrategic
p97
I87
sVgave
p98
I130
sS'<num>'
p99
I2
sVfrom
p100
I36
sVprove
p101
I132
sVthere
p102
I133
sV.
p103
I9
sVmuch
p104
I134
sVway
p105
I56
sVbasic
p106
I135
sVprototype
p107
I18
sVwas
p108
I136
sVfinal
p109
I37
sV>
p110
I27
sVfunction
p111
I137
sVa
p112
I6
sVthat
p113
I14
sVapplication.
p114
I159
sVcompleted
p115
I139
sVfurther
p116
I103
sVbut
p117
I140
sVpart
p118
I141
sVsimulate
p119
I38
sVtangible
p120
I142
sVgeneral
p121
I160
sVeffort
p122
I72
sVbegins
p123
I143
sVaccount
p124
I144
sVportions
p125
I20
sVdeveloping
p126
I145
sVfinalized
p127
I146
sVestimations
p128
I99
sVthis
p129
I148
sVas
p130
I161
sVwill
p131
I40
sVwhile
p132
I149
sVcan
p133
I52
sVbehavior
p134
I29
sVwithdrawing
p135
I122
sVlvl
p136
I93
sVproblem
p137
I10
sVgives
p138
I109
sVexample
p139
I154
sS'<unk>'
p140
I1
sVand
p141
I11
sVgenerate
p142
I156
sV1.1
p143
I8
sVgive
p144
I157
sVcertain
p145
I158
sVis
p146
I12
sVorganized
p147
I138
sVit
p148
I13
sVan
p149
I28
sS'<pad>'
p150
I0
sVitself
p151
I162
sVhave
p152
I163
sVin
p153
I15
sVrequirements
p154
I164
sVstimulates
p155
I165
sVno
p156
I166
sVverify
p157
I167
sVmake
p158
I168
sVwhen
p159
I169
sVclient
p160
I187
sVdetails.
p161
I70
sVhow
p162
I171
sVparts
p163
I57
sVtake
p164
I172
sVwhich
p165
I173
sVyou
p166
I41
sVdevelopment
p167
I174
sVproduct
p168
I16
sVused
p169
I58
sVusers
p170
I42
sVspecifications
p171
I106
sVlay
p172
I176
sVend
p173
I177
sVooa/design
p174
I178
sVdata
p175
I179
sVsimulates
p176
I43
sVbreak
p177
I180
sVeffective
p178
I181
sVprograms
p179
I182
sVdo/look
p180
I124
sVpseudo
p181
I183
sVbugs
p182
I184
sVportion
p183
I186
sVwithout
p184
I185
sVsolve
p185
I188
sVallow
p186
I60
sVtime
p187
I189
sVthe
p188
I3
sVsoftware
p189
I19
sVstarting
p190
I190
sVdiscussion
p191
I191
sVmeet
p192
I152
s.